target datalayout = "e-m:e-p270:32:32-p271:32:32-p272:64:64-i64:64-i128:128-f80:128-n8:16:32:64-S128"
target triple = "x86_64-pc-linux-gnu"

; Function Attrs: inlinehint nounwind sspstrong uwtable
define internal ptr @ossl_check_const_X509_sk_type(ptr noundef %0) #2 {
  %2 = alloca ptr, align 8
  store ptr %0, ptr %2, align 8, !tbaa !10
  %3 = load ptr, ptr %2, align 8, !tbaa !10
  ret ptr %3
}

; Function Attrs: nounwind sspstrong uwtable
define i64 @ossl_x509_sk2ary(ptr noundef %0) #0 {
  %2 = alloca ptr, align 8
  %3 = alloca ptr, align 8
  %4 = alloca i32, align 4
  %5 = alloca i32, align 4
  %6 = alloca i64, align 8
  store ptr %0, ptr %2, align 8, !tbaa !10
  call void @llvm.lifetime.start.p0(i64 8, ptr %3) #22
  call void @llvm.lifetime.start.p0(i64 4, ptr %4) #22
  call void @llvm.lifetime.start.p0(i64 4, ptr %5) #22
  call void @llvm.lifetime.start.p0(i64 8, ptr %6) #22
  %7 = load ptr, ptr %2, align 8, !tbaa !10
  %8 = call ptr @ossl_check_const_X509_sk_type(ptr noundef %7)
  %9 = call i32 @OPENSSL_sk_num(ptr noundef %8)
  store i32 %9, ptr %5, align 4, !tbaa !13
  %10 = load i32, ptr %5, align 4, !tbaa !13
  %11 = sext i32 %10 to i64
  %12 = call i64 @rb_ary_new_capa(i64 noundef %11)
  store i64 %12, ptr %6, align 8, !tbaa !6
  store i32 0, ptr %4, align 4, !tbaa !13
  br label %13

13:                                               ; preds = %26, %1
  %14 = load i32, ptr %4, align 4, !tbaa !13
  %15 = load i32, ptr %5, align 4, !tbaa !13
  %16 = icmp slt i32 %14, %15
  br i1 %16, label %17, label %29

17:                                               ; preds = %13
  %18 = load ptr, ptr %2, align 8, !tbaa !10
  %19 = call ptr @ossl_check_const_X509_sk_type(ptr noundef %18)
  %20 = load i32, ptr %4, align 4, !tbaa !13
  %21 = call ptr @OPENSSL_sk_value(ptr noundef %19, i32 noundef %20)
  store ptr %21, ptr %3, align 8, !tbaa !15
  %22 = load i64, ptr %6, align 8, !tbaa !6
  %23 = load ptr, ptr %3, align 8, !tbaa !15
  %24 = call i64 @ossl_x509_new(ptr noundef %23)
  %25 = call i64 @rb_ary_push(i64 noundef %22, i64 noundef %24)
  br label %26

26:                                               ; preds = %17
  %27 = load i32, ptr %4, align 4, !tbaa !13
  %28 = add nsw i32 %27, 1
  store i32 %28, ptr %4, align 4, !tbaa !13
  br label %13, !llvm.loop !25

29:                                               ; preds = %13
  %30 = load i64, ptr %6, align 8, !tbaa !6
  call void @llvm.lifetime.end.p0(i64 8, ptr %6) #22
  call void @llvm.lifetime.end.p0(i64 4, ptr %5) #22
  call void @llvm.lifetime.end.p0(i64 4, ptr %4) #22
  call void @llvm.lifetime.end.p0(i64 8, ptr %3) #22
  ret i64 %30
}