; Function Attrs: nounwind sspstrong uwtable
define i64 @ossl_x509_sk2ary(ptr noundef %0) local_unnamed_addr #0 {
  %2 = tail call i32 @OPENSSL_sk_num(ptr noundef %0) #15
  %3 = sext i32 %2 to i64
  %4 = tail call i64 @rb_ary_new_capa(i64 noundef %3) #15
  %5 = icmp sgt i32 %2, 0
  br i1 %5, label %.lr.ph, label %._crit_edge

.lr.ph:                                           ; preds = %1, %.lr.ph
  %.09 = phi i32 [ %9, %.lr.ph ], [ 0, %1 ]
  %6 = tail call ptr @OPENSSL_sk_value(ptr noundef %0, i32 noundef %.09) #15
  %7 = tail call i64 @ossl_x509_new(ptr noundef %6) #15
  %8 = tail call i64 @rb_ary_push(i64 noundef %4, i64 noundef %7) #15
  %9 = add nuw nsw i32 %.09, 1
  %exitcond.not = icmp eq i32 %9, %2
  br i1 %exitcond.not, label %._crit_edge, label %.lr.ph, !llvm.loop !19

._crit_edge:                                      ; preds = %.lr.ph, %1
  ret i64 %4
}